; Function Attrs: nounwind uwtable
define ptr @l___private_Lean_Server_Requests_0__Lean_Server_overrideStatefulLspRequestHandler___lambda__9(ptr noundef %0, ptr noundef %1, ptr noundef %2, ptr noundef %3, ptr noundef %4, ptr noundef %5, ptr noundef %6, ptr noundef %7) #1 {
  tail call void @lean_inc_heartbeat() #6
  %9 = tail call noalias ptr @mi_malloc_small(i64 noundef 64) #6
  %10 = icmp eq ptr %9, null
  br i1 %10, label %11, label %lean_alloc_closure.exit

11:                                               ; preds = %8
  tail call void @lean_internal_panic_out_of_memory() #7
  unreachable

lean_alloc_closure.exit:                          ; preds = %8
  %12 = getelementptr inbounds nuw i8, ptr %9, i64 4
  store i32 1, ptr %9, align 4, !tbaa !4
  store i32 -184549312, ptr %12, align 4
  %13 = getelementptr inbounds nuw i8, ptr %9, i64 8
  store ptr @l___private_Lean_Server_Requests_0__Lean_Server_overrideStatefulLspRequestHandler___lambda__8___boxed, ptr %13, align 8, !tbaa !9
  %14 = getelementptr inbounds nuw i8, ptr %9, i64 16
  store i16 9, ptr %14, align 8, !tbaa !15
  %15 = getelementptr inbounds nuw i8, ptr %9, i64 18
  store i16 5, ptr %15, align 2, !tbaa !15
  %16 = getelementptr inbounds nuw i8, ptr %9, i64 24
  store ptr %0, ptr %16, align 8, !tbaa !9
  %17 = getelementptr inbounds nuw i8, ptr %9, i64 32
  store ptr %1, ptr %17, align 8, !tbaa !9
  %18 = getelementptr inbounds nuw i8, ptr %9, i64 40
  store ptr %2, ptr %18, align 8, !tbaa !9
  %19 = getelementptr inbounds nuw i8, ptr %9, i64 48
  store ptr %3, ptr %19, align 8, !tbaa !9
  %20 = getelementptr inbounds nuw i8, ptr %9, i64 56
  store ptr %5, ptr %20, align 8, !tbaa !9
  %21 = load ptr, ptr @l___private_Lean_Server_Requests_0__Lean_Server_overrideStatefulLspRequestHandler___lambda__5___closed__1, align 8, !tbaa !9
  tail call void @lean_inc_heartbeat() #6
  %22 = tail call noalias ptr @mi_malloc_small(i64 noundef 40) #6
  %23 = icmp eq ptr %22, null
  br i1 %23, label %24, label %lean_alloc_closure.exit19

24:                                               ; preds = %lean_alloc_closure.exit
  tail call void @lean_internal_panic_out_of_memory() #7
  unreachable

lean_alloc_closure.exit19:                        ; preds = %lean_alloc_closure.exit
  %25 = getelementptr inbounds nuw i8, ptr %22, i64 4
  store i32 1, ptr %22, align 4, !tbaa !4
  store i32 -184549336, ptr %25, align 4
  %26 = getelementptr inbounds nuw i8, ptr %22, i64 8
  store ptr @l_ReaderT_bind___at___private_Lean_Server_Requests_0__Lean_Server_overrideStatefulLspRequestHandler___spec__2___rarg, ptr %26, align 8, !tbaa !9
  %27 = getelementptr inbounds nuw i8, ptr %22, i64 16
  store i16 5, ptr %27, align 8, !tbaa !15
  %28 = getelementptr inbounds nuw i8, ptr %22, i64 18
  store i16 2, ptr %28, align 2, !tbaa !15
  %29 = getelementptr inbounds nuw i8, ptr %22, i64 24
  store ptr %21, ptr %29, align 8, !tbaa !9
  %30 = getelementptr inbounds nuw i8, ptr %22, i64 32
  store ptr %9, ptr %30, align 8, !tbaa !9
  %31 = tail call ptr @l_Std_Mutex_atomically___at___private_Lean_Server_Requests_0__Lean_Server_overrideStatefulLspRequestHandler___spec__4(ptr noundef %4, ptr noundef nonnull %22, ptr noundef %6, ptr noundef %7)
  ret ptr %31
}